target datalayout = "e-m:e-p270:32:32-p271:32:32-p272:64:64-i64:64-i128:128-f80:128-n8:16:32:64-S128"
target triple = "x86_64-pc-linux-gnu"

@.str.18 = private unnamed_addr constant [18 x i8] c"~!@#^&|`?+-*/%<>=\00", align 1
@.str.19 = private unnamed_addr constant [3 x i8] c"/*\00", align 1
@.str.20 = private unnamed_addr constant [3 x i8] c"--\00", align 1
@.str.21 = private unnamed_addr constant [11 x i8] c"~!@#^&|`?%\00", align 1
@.str.22 = private unnamed_addr constant [3 x i8] c"!=\00", align 1

; Function Attrs: nounwind uwtable
define internal zeroext i1 @validOperatorName(ptr noundef %0) #0 {
  %2 = alloca i1, align 1
  %3 = alloca ptr, align 8
  %4 = alloca i64, align 8
  %5 = alloca i32, align 4
  %6 = alloca i32, align 4
  store ptr %0, ptr %3, align 8
  call void @llvm.lifetime.start.p0(i64 8, ptr %4) #7
  %7 = load ptr, ptr %3, align 8
  %8 = call i64 @strlen(ptr noundef %7) #9
  store i64 %8, ptr %4, align 8
  %9 = load i64, ptr %4, align 8
  %10 = icmp eq i64 %9, 0
  br i1 %10, label %14, label %11

11:                                               ; preds = %1
  %12 = load i64, ptr %4, align 8
  %13 = icmp uge i64 %12, 64
  br i1 %13, label %14, label %15

14:                                               ; preds = %11, %1
  store i1 false, ptr %2, align 1
  store i32 1, ptr %5, align 4
  br label %84

15:                                               ; preds = %11
  %16 = load ptr, ptr %3, align 8
  %17 = call i64 @strspn(ptr noundef %16, ptr noundef @.str.18) #9
  %18 = load i64, ptr %4, align 8
  %19 = icmp ne i64 %17, %18
  br i1 %19, label %20, label %21

20:                                               ; preds = %15
  store i1 false, ptr %2, align 1
  store i32 1, ptr %5, align 4
  br label %84

21:                                               ; preds = %15
  %22 = load ptr, ptr %3, align 8
  %23 = call ptr @strstr(ptr noundef %22, ptr noundef @.str.19) #9
  %24 = icmp ne ptr %23, null
  br i1 %24, label %29, label %25

25:                                               ; preds = %21
  %26 = load ptr, ptr %3, align 8
  %27 = call ptr @strstr(ptr noundef %26, ptr noundef @.str.20) #9
  %28 = icmp ne ptr %27, null
  br i1 %28, label %29, label %30

29:                                               ; preds = %25, %21
  store i1 false, ptr %2, align 1
  store i32 1, ptr %5, align 4
  br label %84

30:                                               ; preds = %25
  %31 = load i64, ptr %4, align 8
  %32 = icmp ugt i64 %31, 1
  br i1 %32, label %33, label %78

33:                                               ; preds = %30
  %34 = load ptr, ptr %3, align 8
  %35 = load i64, ptr %4, align 8
  %36 = sub i64 %35, 1
  %37 = getelementptr inbounds nuw i8, ptr %34, i64 %36
  %38 = load i8, ptr %37, align 1
  %39 = sext i8 %38 to i32
  %40 = icmp eq i32 %39, 43
  br i1 %40, label %49, label %41

41:                                               ; preds = %33
  %42 = load ptr, ptr %3, align 8
  %43 = load i64, ptr %4, align 8
  %44 = sub i64 %43, 1
  %45 = getelementptr inbounds nuw i8, ptr %42, i64 %44
  %46 = load i8, ptr %45, align 1
  %47 = sext i8 %46 to i32
  %48 = icmp eq i32 %47, 45
  br i1 %48, label %49, label %78

49:                                               ; preds = %41, %33
  call void @llvm.lifetime.start.p0(i64 4, ptr %6) #7
  %50 = load i64, ptr %4, align 8
  %51 = sub i64 %50, 2
  %52 = trunc i64 %51 to i32
  store i32 %52, ptr %6, align 4
  br label %53

53:                                               ; preds = %67, %49
  %54 = load i32, ptr %6, align 4
  %55 = icmp sge i32 %54, 0
  br i1 %55, label %56, label %70

56:                                               ; preds = %53
  %57 = load ptr, ptr %3, align 8
  %58 = load i32, ptr %6, align 4
  %59 = sext i32 %58 to i64
  %60 = getelementptr inbounds i8, ptr %57, i64 %59
  %61 = load i8, ptr %60, align 1
  %62 = sext i8 %61 to i32
  %63 = call ptr @strchr(ptr noundef @.str.21, i32 noundef %62) #9
  %64 = icmp ne ptr %63, null
  br i1 %64, label %65, label %66

65:                                               ; preds = %56
  br label %70

66:                                               ; preds = %56
  br label %67

67:                                               ; preds = %66
  %68 = load i32, ptr %6, align 4
  %69 = add i32 %68, -1
  store i32 %69, ptr %6, align 4
  br label %53, !llvm.loop !8

70:                                               ; preds = %65, %53
  %71 = load i32, ptr %6, align 4
  %72 = icmp slt i32 %71, 0
  br i1 %72, label %73, label %74

73:                                               ; preds = %70
  store i1 false, ptr %2, align 1
  store i32 1, ptr %5, align 4
  br label %75

74:                                               ; preds = %70
  store i32 0, ptr %5, align 4
  br label %75

75:                                               ; preds = %74, %73
  call void @llvm.lifetime.end.p0(i64 4, ptr %6) #7
  %76 = load i32, ptr %5, align 4
  switch i32 %76, label %84 [
    i32 0, label %77
  ]

77:                                               ; preds = %75
  br label %78

78:                                               ; preds = %77, %41, %30
  %79 = load ptr, ptr %3, align 8
  %80 = call i32 @strcmp(ptr noundef %79, ptr noundef @.str.22) #9
  %81 = icmp eq i32 %80, 0
  br i1 %81, label %82, label %83

82:                                               ; preds = %78
  store i1 false, ptr %2, align 1
  store i32 1, ptr %5, align 4
  br label %84

83:                                               ; preds = %78
  store i1 true, ptr %2, align 1
  store i32 1, ptr %5, align 4
  br label %84

84:                                               ; preds = %83, %82, %75, %29, %20, %14
  call void @llvm.lifetime.end.p0(i64 8, ptr %4) #7
  %85 = load i1, ptr %2, align 1
  ret i1 %85
}