; Function Attrs: nofree nounwind memory(argmem: read) uwtable
define internal fastcc zeroext i1 @validOperatorName(ptr noundef readonly %0) unnamed_addr #3 {
  %2 = tail call i64 @strlen(ptr noundef nonnull dereferenceable(1) %0) #11
  %3 = add i64 %2, -64
  %or.cond = icmp ult i64 %3, -63
  br i1 %or.cond, label %.loopexit, label %4

4:                                                ; preds = %1
  %5 = tail call i64 @strspn(ptr noundef nonnull %0, ptr noundef nonnull @.str.18) #11
  %.not = icmp eq i64 %5, %2
  br i1 %.not, label %6, label %.loopexit

6:                                                ; preds = %4
  %7 = tail call ptr @strstr(ptr noundef nonnull dereferenceable(1) %0, ptr noundef nonnull dereferenceable(1) @.str.19) #11
  %.not25 = icmp eq ptr %7, null
  br i1 %.not25, label %8, label %.loopexit

8:                                                ; preds = %6
  %9 = tail call ptr @strstr(ptr noundef nonnull dereferenceable(1) %0, ptr noundef nonnull dereferenceable(1) @.str.20) #11
  %.not26 = icmp eq ptr %9, null
  br i1 %.not26, label %10, label %.loopexit

10:                                               ; preds = %8
  %11 = icmp samesign ugt i64 %2, 1
  br i1 %11, label %12, label %sub_0

12:                                               ; preds = %10
  %13 = getelementptr i8, ptr %0, i64 %2
  %14 = getelementptr i8, ptr %13, i64 -1
  %15 = load i8, ptr %14, align 1
  switch i8 %15, label %sub_0 [
    i8 43, label %.lr.ph.preheader
    i8 45, label %.lr.ph.preheader
  ]

.lr.ph.preheader:                                 ; preds = %12, %12
  %16 = add nuw nsw i64 %2, 4294967294
  %17 = and i64 %16, 4294967295
  br label %.lr.ph

18:                                               ; preds = %.lr.ph
  %indvars.iv.next = add nsw i64 %indvars.iv, -1
  %19 = icmp sgt i64 %indvars.iv, 0
  br i1 %19, label %.lr.ph, label %.loopexit, !llvm.loop !4

.lr.ph:                                           ; preds = %.lr.ph.preheader, %18
  %indvars.iv = phi i64 [ %17, %.lr.ph.preheader ], [ %indvars.iv.next, %18 ]
  %20 = getelementptr inbounds nuw i8, ptr %0, i64 %indvars.iv
  %21 = load i8, ptr %20, align 1
  %22 = sext i8 %21 to i32
  %memchr = tail call ptr @memchr(ptr noundef nonnull dereferenceable(1) @.str.21, i32 %22, i64 11)
  %.not27 = icmp eq ptr %memchr, null
  br i1 %.not27, label %18, label %sub_0

sub_0:                                            ; preds = %.lr.ph, %10, %12
  %23 = load i8, ptr %0, align 1
  %.not29 = icmp eq i8 %23, 33
  br i1 %.not29, label %sub_1, label %.loopexit

sub_1:                                            ; preds = %sub_0
  %24 = getelementptr inbounds nuw i8, ptr %0, i64 1
  %25 = load i8, ptr %24, align 1
  %.not30 = icmp eq i8 %25, 61
  br i1 %.not30, label %sub_2, label %.loopexit

sub_2:                                            ; preds = %sub_1
  %26 = getelementptr inbounds nuw i8, ptr %0, i64 2
  %27 = load i8, ptr %26, align 1
  %28 = icmp ne i8 %27, 0
  br label %.loopexit

.loopexit:                                        ; preds = %18, %sub_2, %sub_1, %sub_0, %6, %8, %4, %1
  %.022 = phi i1 [ false, %1 ], [ false, %4 ], [ false, %8 ], [ false, %6 ], [ true, %sub_0 ], [ true, %sub_1 ], [ %28, %sub_2 ], [ false, %18 ]
  ret i1 %.022
}